#include <math.h>
#include <stdio.h>
#include <stdlib.h>
#include <string.h>

int main()
{
    char zf[300][100];
    int i,j,len[300];
    scanf ("%s",&zf[0]);
    len[0]=strlen(zf[0]);
    printf("%d",len[0]);
    for (i=1;i<300;i++)
    {
        scanf("%s",&zf[i]);
        len[i]=strlen(zf[i]);
        if (len[i]==0){
        break;
        }
        printf(",%d",len[i]);

    }
    return 0;
}