; ModuleID = 'source-C-CXX/27/673.c'
source_filename = "source-C-CXX/27/673.c"
target datalayout = "e-m:e-p270:32:32-p271:32:32-p272:64:64-i64:64-f80:128-n8:16:32:64-S128"
target triple = "x86_64-pc-linux-gnu"

@.str = private unnamed_addr constant [3 x i8] c"%s\00", align 1
@.str.1 = private unnamed_addr constant [3 x i8] c"%d\00", align 1
@.str.2 = private unnamed_addr constant [4 x i8] c",%d\00", align 1

; Function Attrs: nofree nounwind sspstrong uwtable
define dso_local i32 @main() local_unnamed_addr #0 {
  %1 = alloca [300 x [100 x i8]], align 16
  %2 = getelementptr inbounds [300 x [100 x i8]], [300 x [100 x i8]]* %1, i64 0, i64 0, i64 0
  call void @llvm.lifetime.start.p0i8(i64 30000, i8* nonnull %2) #4
  %3 = getelementptr inbounds [300 x [100 x i8]], [300 x [100 x i8]]* %1, i64 0, i64 0
  %4 = call i32 (i8*, ...) @__isoc99_scanf(i8* getelementptr inbounds ([3 x i8], [3 x i8]* @.str, i64 0, i64 0), [100 x i8]* nonnull %3)
  %5 = call i64 @strlen(i8* noundef nonnull %2) #5
  %6 = trunc i64 %5 to i32
  %7 = call i32 (i8*, ...) @printf(i8* nonnull dereferenceable(1) getelementptr inbounds ([3 x i8], [3 x i8]* @.str.1, i64 0, i64 0), i32 %6)
  br label %8

8:                                                ; preds = %0, %16
  %9 = phi i64 [ 1, %0 ], [ %18, %16 ]
  %10 = getelementptr inbounds [300 x [100 x i8]], [300 x [100 x i8]]* %1, i64 0, i64 %9
  %11 = call i32 (i8*, ...) @__isoc99_scanf(i8* getelementptr inbounds ([3 x i8], [3 x i8]* @.str, i64 0, i64 0), [100 x i8]* nonnull %10)
  %12 = getelementptr inbounds [100 x i8], [100 x i8]* %10, i64 0, i64 0
  %13 = call i64 @strlen(i8* noundef nonnull %12) #5
  %14 = trunc i64 %13 to i32
  %15 = icmp eq i32 %14, 0
  br i1 %15, label %20, label %16

16:                                               ; preds = %8
  %17 = call i32 (i8*, ...) @printf(i8* nonnull dereferenceable(1) getelementptr inbounds ([4 x i8], [4 x i8]* @.str.2, i64 0, i64 0), i32 %14)
  %18 = add nuw nsw i64 %9, 1
  %19 = icmp eq i64 %18, 300
  br i1 %19, label %20, label %8, !llvm.loop !5

20:                                               ; preds = %8, %16
  call void @llvm.lifetime.end.p0i8(i64 30000, i8* nonnull %2) #4
  ret i32 0
}

; Function Attrs: argmemonly mustprogress nofree nosync nounwind willreturn
declare void @llvm.lifetime.start.p0i8(i64 immarg, i8* nocapture) #1

; Function Attrs: nofree nounwind
declare noundef i32 @__isoc99_scanf(i8* nocapture noundef readonly, ...) local_unnamed_addr #2

; Function Attrs: argmemonly mustprogress nofree nounwind readonly willreturn
declare i64 @strlen(i8* nocapture) local_unnamed_addr #3

; Function Attrs: nofree nounwind
declare noundef i32 @printf(i8* nocapture noundef readonly, ...) local_unnamed_addr #2

; Function Attrs: argmemonly mustprogress nofree nosync nounwind willreturn
declare void @llvm.lifetime.end.p0i8(i64 immarg, i8* nocapture) #1


!llvm.module.flags = !{!0, !1, !2, !3}
!llvm.ident = !{!4}

!0 = !{i32 1, !"wchar_size", i32 4}
!1 = !{i32 7, !"PIC Level", i32 2}
!2 = !{i32 7, !"PIE Level", i32 2}
!3 = !{i32 7, !"uwtable", i32 1}
!4 = !{!"clang version 13.0.0"}
!5 = distinct !{!5, !6}
!6 = !{!"llvm.loop.mustprogress"}
